; Function Attrs: mustprogress nounwind uwtable
define hidden void @_ZN3smt17theory_array_bapaD2Ev(ptr nocapture noundef nonnull readonly align 8 dereferenceable(8) %this) unnamed_addr #4 align 2 personality ptr @__gxx_personality_v0 {
entry:
  %0 = load ptr, ptr %this, align 8
  %cmp.i = icmp eq ptr %0, null
  br i1 %cmp.i, label %invoke.cont, label %if.end.i

if.end.i:                                         ; preds = %entry
  tail call void @_ZN3smt17theory_array_bapa3impD2Ev(ptr noundef nonnull align 8 dereferenceable(268) %0) #16
  invoke void @_ZN6memory10deallocateEPv(ptr noundef nonnull %0)
          to label %invoke.cont unwind label %terminate.lpad

invoke.cont:                                      ; preds = %entry, %if.end.i
  ret void

terminate.lpad:                                   ; preds = %if.end.i
  %1 = landingpad { ptr, i32 }
          catch ptr null
  %2 = extractvalue { ptr, i32 } %1, 0
  tail call void @__clang_call_terminate(ptr %2) #17
  unreachable
}